(dp0
(I70
I100
tp1
(dp2
(I0
F2.5
tp3
(dp4
S'c'
p5
F0.4443935627371451
sS'b'
p6
F0.9211844350266938
sS'other'
p7
F0.08804780363420947
sss(I600
I1000
tp8
(dp9
(I0
F2.5
tp10
(dp11
g5
F0.7288135593220338
sg6
F0.9905660377358491
sg7
F0.3234375
sss(I200
I300
tp12
(dp13
(I0
F2.5
tp14
(dp15
g5
F0.49474237644584645
sg6
F0.9323770491803278
sg7
F0.0905703067811273
sss(I20
I30
tp16
(dp17
(I0
F2.5
tp18
(dp19
g5
F0.5449474460630648
sg6
F0.9032597708894878
sg7
F0.3900303842861721
sss(I100
I140
tp20
(dp21
(I0
F2.5
tp22
(dp23
g5
F0.4332063575463024
sg6
F0.9329545454545455
sg7
F0.07374383286017475
sss(I1000
I-1
tp24
(dp25
(I0
F2.5
tp26
(dp27
g5
F0.8333333333333334
sg6
F1.0
sg7
F0.5217391304347826
sss(I50
I70
tp28
(dp29
(I0
F2.5
tp30
(dp31
g5
F0.47403965897116584
sg6
F0.9194024058983314
sg7
F0.1236053863429329
sss(I300
I600
tp32
(dp33
(I0
F2.5
tp34
(dp35
g5
F0.6151990349819059
sg6
F0.9622641509433962
sg7
F0.15756865371734763
sss(I30
I50
tp36
(dp37
(I0
F2.5
tp38
(dp39
g5
F0.5106503242696495
sg6
F0.9183673469387755
sg7
F0.2473739250327164
sss(I140
I200
tp40
(dp41
(I0
F2.5
tp42
(dp43
g5
F0.44926083688298674
sg6
F0.9413072476656291
sg7
F0.0743801652892562
sss.